; Function Attrs: mustprogress uwtable
define hidden noundef ptr @_ZN7datalog16relation_manager18mk_filter_equal_fnERKNS_10table_baseERKmj(ptr noundef nonnull readnone align 8 captures(none) dereferenceable(200) %0, ptr noundef nonnull align 8 dereferenceable(36) %1, ptr noundef nonnull align 8 dereferenceable(8) %2, i32 noundef %3) local_unnamed_addr #4 align 2 {
  %5 = getelementptr inbounds nuw i8, ptr %1, i64 8
  %6 = load ptr, ptr %5, align 8, !tbaa !382
  %7 = load ptr, ptr %6, align 8, !tbaa !3
  %8 = getelementptr inbounds nuw i8, ptr %7, i64 144
  %9 = load ptr, ptr %8, align 8
  %10 = tail call noundef ptr %9(ptr noundef nonnull align 8 dereferenceable(32) %6, ptr noundef nonnull align 8 dereferenceable(36) %1, ptr noundef nonnull align 8 dereferenceable(8) %2, i32 noundef %3)
  %.not = icmp eq ptr %10, null
  br i1 %.not, label %11, label %18

11:                                               ; preds = %4
  %12 = tail call noalias noundef ptr @_ZN6memory8allocateEm(i64 noundef 48)
  %13 = getelementptr inbounds nuw i8, ptr %12, i64 8
  %14 = getelementptr inbounds nuw i8, ptr %12, i64 16
  tail call void @llvm.memset.p0.i64(ptr noundef nonnull align 8 dereferenceable(16) %14, i8 0, i64 16, i1 false)
  store ptr getelementptr inbounds nuw inrange(-16, 48) (i8, ptr @_ZTVN7datalog16relation_manager29default_table_filter_equal_fnE, i64 16), ptr %12, align 8, !tbaa !3
  store ptr getelementptr inbounds nuw inrange(-16, 24) (i8, ptr @_ZTVN7datalog16relation_manager29default_table_filter_equal_fnE, i64 80), ptr %13, align 8, !tbaa !3
  %15 = getelementptr inbounds nuw i8, ptr %12, i64 32
  %16 = load i64, ptr %2, align 8, !tbaa !380
  store i64 %16, ptr %15, align 8, !tbaa !482
  %17 = getelementptr inbounds nuw i8, ptr %12, i64 40
  store i32 %3, ptr %17, align 8, !tbaa !484
  br label %18

18:                                               ; preds = %11, %4
  %.0 = phi ptr [ %10, %4 ], [ %12, %11 ]
  ret ptr %.0
}